target datalayout = "e-m:e-p270:32:32-p271:32:32-p272:64:64-i64:64-i128:128-f80:128-n8:16:32:64-S128"
target triple = "x86_64-pc-linux-gnu"

@ossl_ssl_ex_ptr_idx = internal global i32 0, align 4
@mSSL = global i64 0, align 8
@id_i_hostname = internal global i64 0, align 8
@.str.225 = private unnamed_addr constant [44 x i8] c"verify_hostname requires hostname to be set\00", align 1
@call_verify_certificate_identity.rbimpl_id = internal global i64 0, align 8
@.str.226 = private unnamed_addr constant [28 x i8] c"verify_certificate_identity\00", align 1

; Function Attrs: inlinehint nounwind sspstrong willreturn memory(read) uwtable
define internal i64 @rb_intern_const(ptr noundef nonnull %0) #1 {
  %2 = alloca ptr, align 8
  %3 = alloca i64, align 8
  store ptr %0, ptr %2, align 8, !tbaa !16
  call void @llvm.lifetime.start.p0(i64 8, ptr %3) #20
  %4 = load ptr, ptr %2, align 8, !tbaa !16
  %5 = call i64 @strlen(ptr noundef %4) #21
  store i64 %5, ptr %3, align 8, !tbaa !14
  %6 = load ptr, ptr %2, align 8, !tbaa !16
  %7 = load i64, ptr %3, align 8, !tbaa !14
  %8 = call i64 @rb_intern2(ptr noundef %6, i64 noundef %7)
  call void @llvm.lifetime.end.p0(i64 8, ptr %3) #20
  ret i64 %8
}

; Function Attrs: inlinehint nounwind sspstrong memory(argmem: readwrite, inaccessiblemem: readwrite) uwtable
define internal i64 @rbimpl_intern_const(ptr noundef nonnull %0, ptr noundef nonnull %1) #15 {
  %3 = alloca ptr, align 8
  %4 = alloca ptr, align 8
  store ptr %0, ptr %3, align 8, !tbaa !32
  store ptr %1, ptr %4, align 8, !tbaa !16
  br label %5

5:                                                ; preds = %10, %2
  %6 = load ptr, ptr %3, align 8, !tbaa !32
  %7 = load i64, ptr %6, align 8, !tbaa !14
  %8 = icmp ne i64 %7, 0
  %9 = xor i1 %8, true
  br i1 %9, label %10, label %14

10:                                               ; preds = %5
  %11 = load ptr, ptr %4, align 8, !tbaa !16
  %12 = call i64 @rb_intern_const(ptr noundef %11) #21
  %13 = load ptr, ptr %3, align 8, !tbaa !32
  store i64 %12, ptr %13, align 8, !tbaa !14
  br label %5, !llvm.loop !73

14:                                               ; preds = %5
  %15 = load ptr, ptr %3, align 8, !tbaa !32
  %16 = load i64, ptr %15, align 8, !tbaa !14
  ret i64 %16
}

; Function Attrs: inlinehint nounwind sspstrong willreturn memory(none) uwtable
define internal zeroext i1 @RB_TEST(i64 noundef %0) #9 {
  %2 = alloca i64, align 8
  store i64 %0, ptr %2, align 8, !tbaa !14
  %3 = load i64, ptr %2, align 8, !tbaa !14
  %4 = and i64 %3, -5
  %5 = icmp ne i64 %4, 0
  ret i1 %5
}

; Function Attrs: nounwind sspstrong uwtable
define internal i64 @call_verify_certificate_identity(i64 noundef %0) #0 {
  %2 = alloca i64, align 8
  %3 = alloca i64, align 8
  %4 = alloca ptr, align 8
  %5 = alloca ptr, align 8
  %6 = alloca i64, align 8
  %7 = alloca i64, align 8
  %8 = alloca i64, align 8
  %9 = alloca i32, align 4
  %10 = alloca i64, align 8
  store i64 %0, ptr %3, align 8, !tbaa !14
  call void @llvm.lifetime.start.p0(i64 8, ptr %4) #20
  %11 = load i64, ptr %3, align 8, !tbaa !14
  %12 = inttoptr i64 %11 to ptr
  store ptr %12, ptr %4, align 8, !tbaa !74
  call void @llvm.lifetime.start.p0(i64 8, ptr %5) #20
  call void @llvm.lifetime.start.p0(i64 8, ptr %6) #20
  call void @llvm.lifetime.start.p0(i64 8, ptr %7) #20
  call void @llvm.lifetime.start.p0(i64 8, ptr %8) #20
  %13 = load ptr, ptr %4, align 8, !tbaa !74
  %14 = call i32 @SSL_get_ex_data_X509_STORE_CTX_idx()
  %15 = call ptr @X509_STORE_CTX_get_ex_data(ptr noundef %13, i32 noundef %14)
  store ptr %15, ptr %5, align 8, !tbaa !10
  %16 = load ptr, ptr %5, align 8, !tbaa !10
  %17 = load i32, ptr @ossl_ssl_ex_ptr_idx, align 4, !tbaa !12
  %18 = call ptr @SSL_get_ex_data(ptr noundef %16, i32 noundef %17)
  %19 = ptrtoint ptr %18 to i64
  store i64 %19, ptr %6, align 8, !tbaa !14
  %20 = load i64, ptr %6, align 8, !tbaa !14
  %21 = load i64, ptr @id_i_hostname, align 8, !tbaa !14
  %22 = call i64 @rb_attr_get(i64 noundef %20, i64 noundef %21)
  store i64 %22, ptr %7, align 8, !tbaa !14
  %23 = load i64, ptr %7, align 8, !tbaa !14
  %24 = call zeroext i1 @RB_TEST(i64 noundef %23) #23
  br i1 %24, label %26, label %25

25:                                               ; preds = %1
  call void (ptr, ...) @rb_warning(ptr noundef @.str.225)
  store i64 20, ptr %2, align 8
  store i32 1, ptr %9, align 4
  br label %36

26:                                               ; preds = %1
  %27 = load ptr, ptr %4, align 8, !tbaa !74
  %28 = call ptr @X509_STORE_CTX_get_current_cert(ptr noundef %27)
  %29 = call i64 @ossl_x509_new(ptr noundef %28)
  store i64 %29, ptr %8, align 8, !tbaa !14
  %30 = load i64, ptr @mSSL, align 8, !tbaa !14
  %31 = call i64 @rbimpl_intern_const(ptr noundef @call_verify_certificate_identity.rbimpl_id, ptr noundef @.str.226) #24
  store i64 %31, ptr %10, align 8, !tbaa !14
  %32 = load i64, ptr %10, align 8, !tbaa !14
  %33 = load i64, ptr %8, align 8, !tbaa !14
  %34 = load i64, ptr %7, align 8, !tbaa !14
  %35 = call i64 (i64, i64, i32, ...) @rb_funcall(i64 noundef %30, i64 noundef %32, i32 noundef 2, i64 noundef %33, i64 noundef %34)
  store i64 %35, ptr %2, align 8
  store i32 1, ptr %9, align 4
  br label %36

36:                                               ; preds = %26, %25
  call void @llvm.lifetime.end.p0(i64 8, ptr %8) #20
  call void @llvm.lifetime.end.p0(i64 8, ptr %7) #20
  call void @llvm.lifetime.end.p0(i64 8, ptr %6) #20
  call void @llvm.lifetime.end.p0(i64 8, ptr %5) #20
  call void @llvm.lifetime.end.p0(i64 8, ptr %4) #20
  %37 = load i64, ptr %2, align 8
  ret i64 %37
}