; Function Attrs: nounwind sspstrong uwtable
define internal i64 @call_verify_certificate_identity(i64 noundef %0) #0 {
  %2 = inttoptr i64 %0 to ptr
  %3 = tail call i32 @SSL_get_ex_data_X509_STORE_CTX_idx() #9
  %4 = tail call ptr @X509_STORE_CTX_get_ex_data(ptr noundef %2, i32 noundef %3) #9
  %5 = load i32, ptr @ossl_ssl_ex_ptr_idx, align 4, !tbaa !6
  %6 = tail call ptr @SSL_get_ex_data(ptr noundef %4, i32 noundef %5) #9
  %7 = ptrtoint ptr %6 to i64
  %8 = load i64, ptr @id_i_hostname, align 8, !tbaa !10
  %9 = tail call i64 @rb_attr_get(i64 noundef %7, i64 noundef %8) #9
  %10 = and i64 %9, -5
  %.not = icmp eq i64 %10, 0
  br i1 %.not, label %11, label %12

11:                                               ; preds = %1
  tail call void (ptr, ...) @rb_warning(ptr noundef nonnull @.str.225) #9
  br label %18

12:                                               ; preds = %1
  %13 = tail call ptr @X509_STORE_CTX_get_current_cert(ptr noundef %2) #9
  %14 = tail call i64 @ossl_x509_new(ptr noundef %13) #9
  %15 = load i64, ptr @mSSL, align 8, !tbaa !10
  %.pr.i = load i64, ptr @call_verify_certificate_identity.rbimpl_id, align 8, !tbaa !10
  %.not4.i = icmp eq i64 %.pr.i, 0
  br i1 %.not4.i, label %.lr.ph.i, label %rbimpl_intern_const.exit

.lr.ph.i:                                         ; preds = %12, %.lr.ph.i
  %16 = tail call i64 @rb_intern2(ptr noundef nonnull @.str.226, i64 noundef 27) #9
  store i64 %16, ptr @call_verify_certificate_identity.rbimpl_id, align 8, !tbaa !10
  %.not.i = icmp eq i64 %16, 0
  br i1 %.not.i, label %.lr.ph.i, label %rbimpl_intern_const.exit, !llvm.loop !29

rbimpl_intern_const.exit:                         ; preds = %.lr.ph.i, %12
  %.lcssa.i = phi i64 [ %.pr.i, %12 ], [ %16, %.lr.ph.i ]
  %17 = tail call i64 (i64, i64, i32, ...) @rb_funcall(i64 noundef %15, i64 noundef %.lcssa.i, i32 noundef 2, i64 noundef %14, i64 noundef %9) #9
  br label %18

18:                                               ; preds = %rbimpl_intern_const.exit, %11
  %.0 = phi i64 [ %17, %rbimpl_intern_const.exit ], [ 20, %11 ]
  ret i64 %.0
}